target datalayout = "e-m:e-p270:32:32-p271:32:32-p272:64:64-i64:64-i128:128-f80:128-n8:16:32:64-S128"
target triple = "x86_64-pc-linux-gnu"

%"class.google::protobuf::internal::InternalMetadata" = type { i64 }
%"class.google::protobuf::internal::HasBits" = type { [1 x i32] }
%"class.google::protobuf::RepeatedField.4" = type { i32, i32, ptr }
%"class.google::protobuf::Message" = type { %"class.google::protobuf::MessageLite" }
%"class.google::protobuf::MessageLite" = type { ptr, %"class.google::protobuf::internal::InternalMetadata" }
%"struct.std::atomic" = type { %"struct.std::__atomic_base" }
%"struct.std::__atomic_base" = type { i32 }
%"class.google::protobuf::internal::CachedSize" = type { %"struct.std::atomic" }
%"class.opencv_caffe::CropParameter" = type <{ %"class.google::protobuf::Message", %"class.google::protobuf::internal::HasBits", %"class.google::protobuf::internal::CachedSize", %"class.google::protobuf::RepeatedField.4", i32, [4 x i8] }>

; Function Attrs: mustprogress nounwind uwtable
define linkonce_odr hidden noundef i32 @_ZN6google8protobuf4Bits18Log2FloorNonZero64Em(i64 noundef %0) #5 comdat align 2 {
  %2 = alloca i64, align 8
  store i64 %0, ptr %2, align 8, !tbaa !59
  %3 = load i64, ptr %2, align 8, !tbaa !59
  %4 = call i64 @llvm.ctlz.i64(i64 %3, i1 true)
  %5 = trunc i64 %4 to i32
  %6 = xor i32 63, %5
  ret i32 %6
}

; Function Attrs: inlinehint mustprogress nounwind uwtable
define linkonce_odr hidden noundef i64 @_ZN6google8protobuf2io17CodedOutputStream19VarintSize64PlusOneEm(i64 noundef %0) #7 comdat align 2 {
  %2 = alloca i64, align 8
  %3 = alloca i32, align 4
  store i64 %0, ptr %2, align 8, !tbaa !59
  call void @llvm.lifetime.start.p0(i64 4, ptr %3) #3
  %4 = load i64, ptr %2, align 8, !tbaa !59
  %5 = or i64 %4, 1
  %6 = call noundef i32 @_ZN6google8protobuf4Bits18Log2FloorNonZero64Em(i64 noundef %5)
  store i32 %6, ptr %3, align 4, !tbaa !8
  %7 = load i32, ptr %3, align 4, !tbaa !8
  %8 = mul i32 %7, 9
  %9 = add i32 %8, 73
  %10 = add i32 %9, 64
  %11 = udiv i32 %10, 64
  %12 = zext i32 %11 to i64
  call void @llvm.lifetime.end.p0(i64 4, ptr %3) #3
  ret i64 %12
}

; Function Attrs: inlinehint mustprogress uwtable
define linkonce_odr hidden noundef i64 @_ZN6google8protobuf2io17CodedOutputStream31VarintSize32SignExtendedPlusOneEi(i32 noundef %0) #6 comdat align 2 {
  %2 = alloca i32, align 4
  store i32 %0, ptr %2, align 4, !tbaa !8
  %3 = load i32, ptr %2, align 4, !tbaa !8
  %4 = sext i32 %3 to i64
  %5 = call noundef i64 @_ZN6google8protobuf2io17CodedOutputStream19VarintSize64PlusOneEm(i64 noundef %4)
  ret i64 %5
}

; Function Attrs: inlinehint mustprogress nounwind uwtable
define available_externally noundef i32 @_ZNK6google8protobuf13RepeatedFieldIjE4sizeEv(ptr noundef nonnull align 8 dereferenceable(16) %0) #7 align 2 {
  %2 = alloca ptr, align 8
  store ptr %0, ptr %2, align 8, !tbaa !146
  %3 = load ptr, ptr %2, align 8
  %4 = getelementptr inbounds nuw %"class.google::protobuf::RepeatedField.4", ptr %3, i32 0, i32 0
  %5 = load i32, ptr %4, align 8, !tbaa !148
  ret i32 %5
}

; Function Attrs: inlinehint mustprogress uwtable
define linkonce_odr hidden noundef i64 @_ZN6google8protobuf8internal14WireFormatLite16Int32SizePlusOneEi(i32 noundef %0) #6 comdat align 2 {
  %2 = alloca i32, align 4
  store i32 %0, ptr %2, align 4, !tbaa !8
  %3 = load i32, ptr %2, align 4, !tbaa !8
  %4 = call noundef i64 @_ZN6google8protobuf2io17CodedOutputStream31VarintSize32SignExtendedPlusOneEi(i32 noundef %3)
  ret i64 %4
}

; Function Attrs: inlinehint mustprogress nounwind uwtable
define linkonce_odr hidden noundef i32 @_ZNK12opencv_caffe13CropParameter14_internal_axisEv(ptr noundef nonnull align 8 dereferenceable(48) %0) #7 comdat align 2 {
  %2 = alloca ptr, align 8
  store ptr %0, ptr %2, align 8, !tbaa !871
  %3 = load ptr, ptr %2, align 8
  %4 = getelementptr inbounds nuw %"class.opencv_caffe::CropParameter", ptr %3, i32 0, i32 4
  %5 = load i32, ptr %4, align 8, !tbaa !872
  ret i32 %5
}

; Function Attrs: alwaysinline mustprogress nounwind uwtable
define linkonce_odr hidden noundef nonnull align 4 dereferenceable(4) ptr @_ZNK6google8protobuf8internal7HasBitsILm1EEixEi(ptr noundef nonnull align 4 dereferenceable(4) %0, i32 noundef %1) #13 comdat align 2 {
  %3 = alloca ptr, align 8
  %4 = alloca i32, align 4
  store ptr %0, ptr %3, align 8, !tbaa !87
  store i32 %1, ptr %4, align 4, !tbaa !8
  %5 = load ptr, ptr %3, align 8
  %6 = getelementptr inbounds nuw %"class.google::protobuf::internal::HasBits", ptr %5, i32 0, i32 0
  %7 = load i32, ptr %4, align 4, !tbaa !8
  %8 = sext i32 %7 to i64
  %9 = getelementptr inbounds [1 x i32], ptr %6, i64 0, i64 %8
  ret ptr %9
}

; Function Attrs: inlinehint mustprogress nounwind uwtable
define linkonce_odr hidden noundef i64 @_ZN6google8protobuf8internal11FromIntSizeEi(i32 noundef %0) #7 comdat {
  %2 = alloca i32, align 4
  store i32 %0, ptr %2, align 4, !tbaa !8
  %3 = load i32, ptr %2, align 4, !tbaa !8
  %4 = zext i32 %3 to i64
  ret i64 %4
}

; Function Attrs: inlinehint mustprogress nounwind uwtable
define linkonce_odr hidden noundef i32 @_ZNK12opencv_caffe13CropParameter21_internal_offset_sizeEv(ptr noundef nonnull align 8 dereferenceable(48) %0) #7 comdat align 2 {
  %2 = alloca ptr, align 8
  store ptr %0, ptr %2, align 8, !tbaa !871
  %3 = load ptr, ptr %2, align 8
  %4 = getelementptr inbounds nuw %"class.opencv_caffe::CropParameter", ptr %3, i32 0, i32 3
  %5 = call noundef i32 @_ZNK6google8protobuf13RepeatedFieldIjE4sizeEv(ptr noundef nonnull align 8 dereferenceable(16) %4)
  ret i32 %5
}

; Function Attrs: mustprogress uwtable
define hidden noundef i64 @_ZNK12opencv_caffe13CropParameter12ByteSizeLongEv(ptr noundef nonnull align 8 dereferenceable(48) %0) unnamed_addr #4 align 2 {
  %2 = alloca ptr, align 8
  %3 = alloca i64, align 8
  %4 = alloca i32, align 4
  %5 = alloca i64, align 8
  store ptr %0, ptr %2, align 8, !tbaa !871
  %6 = load ptr, ptr %2, align 8
  call void @llvm.lifetime.start.p0(i64 8, ptr %3) #3
  store i64 0, ptr %3, align 8, !tbaa !59
  call void @llvm.lifetime.start.p0(i64 4, ptr %4) #3
  store i32 0, ptr %4, align 4, !tbaa !8
  call void @llvm.lifetime.start.p0(i64 8, ptr %5) #3
  %7 = getelementptr inbounds nuw %"class.opencv_caffe::CropParameter", ptr %6, i32 0, i32 3
  %8 = call noundef i64 @_ZN6google8protobuf8internal14WireFormatLite10UInt32SizeERKNS0_13RepeatedFieldIjEE(ptr noundef nonnull align 8 dereferenceable(16) %7)
  store i64 %8, ptr %5, align 8, !tbaa !59
  %9 = call noundef i32 @_ZNK12opencv_caffe13CropParameter21_internal_offset_sizeEv(ptr noundef nonnull align 8 dereferenceable(48) %6)
  %10 = call noundef i64 @_ZN6google8protobuf8internal11FromIntSizeEi(i32 noundef %9)
  %11 = mul i64 1, %10
  %12 = load i64, ptr %3, align 8, !tbaa !59
  %13 = add i64 %12, %11
  store i64 %13, ptr %3, align 8, !tbaa !59
  %14 = load i64, ptr %5, align 8, !tbaa !59
  %15 = load i64, ptr %3, align 8, !tbaa !59
  %16 = add i64 %15, %14
  store i64 %16, ptr %3, align 8, !tbaa !59
  call void @llvm.lifetime.end.p0(i64 8, ptr %5) #3
  %17 = getelementptr inbounds nuw %"class.opencv_caffe::CropParameter", ptr %6, i32 0, i32 1
  %18 = call noundef nonnull align 4 dereferenceable(4) ptr @_ZNK6google8protobuf8internal7HasBitsILm1EEixEi(ptr noundef nonnull align 4 dereferenceable(4) %17, i32 noundef 0)
  %19 = load i32, ptr %18, align 4, !tbaa !8
  store i32 %19, ptr %4, align 4, !tbaa !8
  %20 = load i32, ptr %4, align 4, !tbaa !8
  %21 = and i32 %20, 1
  %22 = icmp ne i32 %21, 0
  br i1 %22, label %23, label %28

23:                                               ; preds = %1
  %24 = call noundef i32 @_ZNK12opencv_caffe13CropParameter14_internal_axisEv(ptr noundef nonnull align 8 dereferenceable(48) %6)
  %25 = call noundef i64 @_ZN6google8protobuf8internal14WireFormatLite16Int32SizePlusOneEi(i32 noundef %24)
  %26 = load i64, ptr %3, align 8, !tbaa !59
  %27 = add i64 %26, %25
  store i64 %27, ptr %3, align 8, !tbaa !59
  br label %28

28:                                               ; preds = %23, %1
  %29 = load i64, ptr %3, align 8, !tbaa !59
  %30 = getelementptr inbounds nuw %"class.opencv_caffe::CropParameter", ptr %6, i32 0, i32 2
  %31 = call noundef i64 @_ZNK6google8protobuf7Message29MaybeComputeUnknownFieldsSizeEmPNS0_8internal10CachedSizeE(ptr noundef nonnull align 8 dereferenceable(16) %6, i64 noundef %29, ptr noundef %30)
  call void @llvm.lifetime.end.p0(i64 4, ptr %4) #3
  call void @llvm.lifetime.end.p0(i64 8, ptr %3) #3
  ret i64 %31
}