; Function Attrs: mustprogress uwtable
define hidden noundef i64 @_ZNK12opencv_caffe13CropParameter12ByteSizeLongEv(ptr noundef nonnull align 8 dereferenceable(48) %0) unnamed_addr #3 align 2 {
  %2 = getelementptr inbounds nuw i8, ptr %0, i64 24
  %3 = tail call noundef i64 @_ZN6google8protobuf8internal14WireFormatLite10UInt32SizeERKNS0_13RepeatedFieldIjEE(ptr noundef nonnull align 8 dereferenceable(16) %2)
  %4 = load i32, ptr %2, align 8, !tbaa !107
  %5 = zext i32 %4 to i64
  %6 = add i64 %3, %5
  %7 = getelementptr inbounds nuw i8, ptr %0, i64 16
  %8 = load i32, ptr %7, align 8, !tbaa !71
  %9 = and i32 %8, 1
  %.not = icmp eq i32 %9, 0
  br i1 %.not, label %21, label %10

10:                                               ; preds = %1
  %11 = getelementptr inbounds nuw i8, ptr %0, i64 40
  %12 = load i32, ptr %11, align 8, !tbaa !495
  %13 = or i32 %12, 1
  %14 = sext i32 %13 to i64
  %15 = tail call range(i64 0, 65) i64 @llvm.ctlz.i64(i64 %14, i1 true)
  %16 = xor i64 %15, 63
  %17 = mul nuw nsw i64 %16, 9
  %18 = add nuw nsw i64 %17, 137
  %19 = lshr i64 %18, 6
  %20 = add i64 %19, %6
  br label %21

21:                                               ; preds = %10, %1
  %.0 = phi i64 [ %20, %10 ], [ %6, %1 ]
  %22 = getelementptr inbounds nuw i8, ptr %0, i64 20
  %23 = tail call noundef i64 @_ZNK6google8protobuf7Message29MaybeComputeUnknownFieldsSizeEmPNS0_8internal10CachedSizeE(ptr noundef nonnull align 8 dereferenceable(16) %0, i64 noundef %.0, ptr noundef nonnull %22)
  ret i64 %23
}